; ModuleID = 'source-C-CXX/3/1565.c'
source_filename = "source-C-CXX/3/1565.c"
target datalayout = "e-m:e-p270:32:32-p271:32:32-p272:64:64-i64:64-f80:128-n8:16:32:64-S128"
target triple = "x86_64-pc-linux-gnu"

@.str = private unnamed_addr constant [6 x i8] c"%d %d\00", align 1
@.str.1 = private unnamed_addr constant [3 x i8] c"%d\00", align 1
@.str.2 = private unnamed_addr constant [4 x i8] c"%d\0A\00", align 1

; Function Attrs: nofree nounwind sspstrong uwtable
define dso_local void @main() local_unnamed_addr #0 {
  %1 = alloca i32, align 4
  %2 = alloca i32, align 4
  %3 = bitcast i32* %1 to i8*
  call void @llvm.lifetime.start.p0i8(i64 4, i8* nonnull %3) #4
  %4 = bitcast i32* %2 to i8*
  call void @llvm.lifetime.start.p0i8(i64 4, i8* nonnull %4) #4
  %5 = call i32 (i8*, ...) @__isoc99_scanf(i8* getelementptr inbounds ([6 x i8], [6 x i8]* @.str, i64 0, i64 0), i32* nonnull %1, i32* nonnull %2)
  %6 = call noalias align 16 dereferenceable_or_null(800) i8* @malloc(i64 800) #4
  %7 = bitcast i8* %6 to [120 x i32]*
  %8 = load i32, i32* %1, align 4, !tbaa !5
  %9 = icmp sgt i32 %8, 0
  %10 = load i32, i32* %2, align 4, !tbaa !5
  %11 = icmp sgt i32 %10, 0
  %12 = select i1 %9, i1 %11, i1 false
  br i1 %12, label %13, label %18

13:                                               ; preds = %0, %36
  %14 = phi i32 [ %37, %36 ], [ %8, %0 ]
  %15 = phi i32 [ %38, %36 ], [ %10, %0 ]
  %16 = phi i64 [ %39, %36 ], [ 0, %0 ]
  %17 = icmp sgt i32 %15, 0
  br i1 %17, label %26, label %36

18:                                               ; preds = %36, %0
  %19 = phi i32 [ %10, %0 ], [ %38, %36 ]
  %20 = phi i32 [ %8, %0 ], [ %37, %36 ]
  %21 = add i32 %20, -2
  %22 = add i32 %21, %19
  %23 = icmp sgt i32 %22, -1
  %24 = icmp sgt i32 %20, 0
  %25 = select i1 %23, i1 %24, i1 false
  br i1 %25, label %42, label %77

26:                                               ; preds = %13, %26
  %27 = phi i64 [ %30, %26 ], [ 0, %13 ]
  %28 = getelementptr inbounds [120 x i32], [120 x i32]* %7, i64 %16, i64 %27
  %29 = call i32 (i8*, ...) @__isoc99_scanf(i8* getelementptr inbounds ([3 x i8], [3 x i8]* @.str.1, i64 0, i64 0), i32* %28)
  %30 = add nuw nsw i64 %27, 1
  %31 = load i32, i32* %2, align 4, !tbaa !5
  %32 = sext i32 %31 to i64
  %33 = icmp slt i64 %30, %32
  br i1 %33, label %26, label %34, !llvm.loop !9

34:                                               ; preds = %26
  %35 = load i32, i32* %1, align 4, !tbaa !5
  br label %36

36:                                               ; preds = %34, %13
  %37 = phi i32 [ %35, %34 ], [ %14, %13 ]
  %38 = phi i32 [ %31, %34 ], [ %15, %13 ]
  %39 = add nuw nsw i64 %16, 1
  %40 = sext i32 %37 to i64
  %41 = icmp slt i64 %39, %40
  br i1 %41, label %13, label %18, !llvm.loop !11

42:                                               ; preds = %18, %69
  %43 = phi i32 [ %70, %69 ], [ %19, %18 ]
  %44 = phi i32 [ %71, %69 ], [ %20, %18 ]
  %45 = phi i64 [ %72, %69 ], [ 0, %18 ]
  %46 = icmp sgt i32 %44, 0
  br i1 %46, label %47, label %69

47:                                               ; preds = %42, %60
  %48 = phi i32 [ %61, %60 ], [ %44, %42 ]
  %49 = phi i32 [ %62, %60 ], [ %44, %42 ]
  %50 = phi i32 [ %68, %60 ], [ %43, %42 ]
  %51 = phi i64 [ %63, %60 ], [ 0, %42 ]
  %52 = sub nsw i64 %45, %51
  %53 = sext i32 %50 to i64
  %54 = icmp slt i64 %52, %53
  br i1 %54, label %55, label %60

55:                                               ; preds = %47
  %56 = getelementptr inbounds [120 x i32], [120 x i32]* %7, i64 %51, i64 %52
  %57 = load i32, i32* %56, align 4, !tbaa !5
  %58 = call i32 (i8*, ...) @printf(i8* nonnull dereferenceable(1) getelementptr inbounds ([4 x i8], [4 x i8]* @.str.2, i64 0, i64 0), i32 %57)
  %59 = load i32, i32* %1, align 4
  br label %60

60:                                               ; preds = %47, %55
  %61 = phi i32 [ %48, %47 ], [ %59, %55 ]
  %62 = phi i32 [ %49, %47 ], [ %59, %55 ]
  %63 = add nuw nsw i64 %51, 1
  %64 = icmp ugt i64 %45, %51
  %65 = sext i32 %62 to i64
  %66 = icmp slt i64 %63, %65
  %67 = select i1 %64, i1 %66, i1 false
  %68 = load i32, i32* %2, align 4, !tbaa !5
  br i1 %67, label %47, label %69, !llvm.loop !13

69:                                               ; preds = %60, %42
  %70 = phi i32 [ %43, %42 ], [ %68, %60 ]
  %71 = phi i32 [ %44, %42 ], [ %61, %60 ]
  %72 = add nuw nsw i64 %45, 1
  %73 = add i32 %71, -2
  %74 = add i32 %73, %70
  %75 = sext i32 %74 to i64
  %76 = icmp slt i64 %45, %75
  br i1 %76, label %42, label %77, !llvm.loop !14

77:                                               ; preds = %69, %18
  call void @llvm.lifetime.end.p0i8(i64 4, i8* nonnull %4) #4
  call void @llvm.lifetime.end.p0i8(i64 4, i8* nonnull %3) #4
  ret void
}

; Function Attrs: argmemonly mustprogress nofree nosync nounwind willreturn
declare void @llvm.lifetime.start.p0i8(i64 immarg, i8* nocapture) #1

; Function Attrs: nofree nounwind
declare noundef i32 @__isoc99_scanf(i8* nocapture noundef readonly, ...) local_unnamed_addr #2

; Function Attrs: inaccessiblememonly mustprogress nofree nounwind willreturn
declare noalias noundef align 16 i8* @malloc(i64 noundef) local_unnamed_addr #3

; Function Attrs: nofree nounwind
declare noundef i32 @printf(i8* nocapture noundef readonly, ...) local_unnamed_addr #2

; Function Attrs: argmemonly mustprogress nofree nosync nounwind willreturn
declare void @llvm.lifetime.end.p0i8(i64 immarg, i8* nocapture) #1


!llvm.module.flags = !{!0, !1, !2, !3}
!llvm.ident = !{!4}

!0 = !{i32 1, !"wchar_size", i32 4}
!1 = !{i32 7, !"PIC Level", i32 2}
!2 = !{i32 7, !"PIE Level", i32 2}
!3 = !{i32 7, !"uwtable", i32 1}
!4 = !{!"clang version 13.0.0"}
!5 = !{!6, !6, i64 0}
!6 = !{!"int", !7, i64 0}
!7 = !{!"omnipotent char", !8, i64 0}
!8 = !{!"Simple C/C++ TBAA"}
!9 = distinct !{!9, !10}
!10 = !{!"llvm.loop.mustprogress"}
!11 = distinct !{!11, !10, !12}
!12 = !{!"llvm.loop.unswitch.partial.disable"}
!13 = distinct !{!13, !10}
!14 = distinct !{!14, !10, !12}
